(dp1
S'output'
p2
S"<type 'exceptions.TypeError'> URL() got an unexpected keyword argument 'application'"
p3
sS'layer'
p4
S'/home/han/Dropbox/web2py/applications/portfolio/views/default/index.html'
p5
sS'code'
p6
S'response.write(\'<!DOCTYPE html>\\n<html lang="en">\\n\\n<head>\\n\\n    <meta charset="utf-8">\\n    <meta http-equiv="X-UA-Compatible" content="IE=edge">\\n    <meta name="viewport" content="width=device-width, initial-scale=1">\\n    <meta name="description" content="portfolio">\\n    <meta name="author" content="Han Kim">\\n\\n    <title>Han Kim</title>\\n\\n    <!-- favicon -->\\n    <link rel="shortcut icon" href="\', escape=False)\nresponse.write(URL(\'static\', \'img\'))\nresponse.write(\'/logo.png" type="image/x-icon">\\n    <link rel="apple-touch-icon" href="\', escape=False)\nresponse.write(URL(\'static\', \'img\'))\nresponse.write(\'/logo.png">\\n\\n    <!-- Bootstrap Core CSS - Uses Bootswatch Flatly Theme: http://bootswatch.com/flatly/ -->\\n    <link href="\', escape=False)\nresponse.write(URL(\'static\', \'css\'))\nresponse.write(\'/bootstrap.min.css" rel="stylesheet">\\n\\n    <!-- Custom CSS -->\\n    <link href="\', escape=False)\nresponse.write(URL(\'static\', \'css\'))\nresponse.write(\'/freelancer.css" rel="stylesheet">\\n    <link href="\', escape=False)\nresponse.write(URL(\'static\', \'css\'))\nresponse.write(\'/style.css" rel="stylesheet">\\n\\n    <!-- Custom Fonts -->\\n    <link href="\', escape=False)\nresponse.write(URL(\'static\', \'font-awesome\'))\nresponse.write(\'/css/font-awesome.min.css" rel="stylesheet" type="text/css">\\n    <link href="//fonts.googleapis.com/css?family=Montserrat:400,700" rel="stylesheet" type="text/css">\\n    <link href="//fonts.googleapis.com/css?family=Lato:400,700,400italic,700italic" rel="stylesheet" type="text/css">\\n\\n    <!-- HTML5 Shim and Respond.js IE8 support of HTML5 elements and media queries -->\\n    <!-- WARNING: Respond.js doesn\\\'t work if you view the page via file:// -->\\n    <!--[if lt IE 9]>\\n        <script src="https://oss.maxcdn.com/libs/html5shiv/3.7.0/html5shiv.js"></script>\\n        <script src="https://oss.maxcdn.com/libs/respond.js/1.4.2/respond.min.js"></script>\\n    <![endif]-->\\n\\n</head>\\n\\n<body id="page-top" class="index">\\n\\n    <!-- Navigation -->\\n    <nav class="navbar navbar-default navbar-fixed-top">\\n        <div class="container">\\n            <!-- Brand and toggle get grouped for better mobile display -->\\n            <div class="navbar-header page-scroll">\\n                <button type="button" class="navbar-toggle" data-toggle="collapse" data-target="#bs-example-navbar-collapse-1">\\n                    <span class="sr-only">Toggle navigation</span>\\n                    <span class="icon-bar"></span>\\n                    <span class="icon-bar"></span>\\n                    <span class="icon-bar"></span>\\n                </button>\\n                <a class="navbar-brand" href="#page-top">HK</a>\\n            </div>\\n\\n            <!-- Collect the nav links, forms, and other content for toggling -->\\n            <div class="collapse navbar-collapse" id="bs-example-navbar-collapse-1">\\n                <ul class="nav navbar-nav navbar-right">\\n                    <li class="hidden">\\n                        <a href="#page-top"></a>\\n                    </li>\\n                    <li class="page-scroll">\\n                        <a href="#portfolio">Projects</a>\\n                    </li>\\n                    <li class="page-scroll">\\n                        <a href="#about">Writing</a>\\n                    </li>\\n                    <li class="page-scroll">\\n                        <a href="#footer">Contact</a>\\n                    </li>\\n                </ul>\\n            </div>\\n            <!-- /.navbar-collapse -->\\n        </div>\\n        <!-- /.container-fluid -->\\n    </nav>\\n\\n    <!-- Header -->\\n    <header>\\n        <div class="container">\\n            <div class="row">\\n                <div class="col-lg-12">\\n                    <img class="img-responsive" src="\', escape=False)\nresponse.write(URL(\'static\', \'img\'))\nresponse.write(\'/profile.png" alt="">\\n                    <div class="intro-text">\\n                        <span class="name">Hey, I\\\'m Han</span>\\n                        <!-- <hr class="star-light"> -->\\n                        <!-- <span class="skills"></span> -->\\n                    </div>\\n                </div>\\n            </div>\\n        </div>\\n    </header>\\n\\n    <!-- Portfolio Grid Section -->\\n    <section id="portfolio">\\n        <div class="container">\\n            <div class="row">\\n                <div class="col-lg-12 text-center">\\n                    <h2>I build things...</h2>\\n                    <hr class="star-primary">\\n                </div>\\n            </div>\\n            <div class="row">\\n                <div class="col-sm-6 portfolio-item">\\n                    <a href="\', escape=False)\nresponse.write(URL(application=\'isthisarepost\'))\nresponse.write(\'" target="blank" class="portfolio-link" data-toggle="modal">\\n                        <div class="caption">\\n                            <div class="caption-content">\\n                                <i class="fa fa-search-plus fa-3x"></i>\\n                            </div>\\n                        </div>\\n                        <img src="\', escape=False)\nresponse.write(URL(\'static\', \'img\'))\nresponse.write(\'/portfolio/isthisarepost.png" class="img-responsive" alt="">\\n                    </a>\\n                </div>\\n                <div class="col-sm-6 portfolio-item">\\n                    <a href="//www.yogurtjam.com" target="blank" class="portfolio-link" data-toggle="modal">\\n                        <div class="caption">\\n                            <div class="caption-content">\\n                                <i class="fa fa-search-plus fa-3x"></i>\\n                            </div>\\n                        </div>\\n                        <img src="\', escape=False)\nresponse.write(URL(\'static\', \'img\'))\nresponse.write(\'/portfolio/yogurtjam.png" class="img-responsive" alt="">\\n                    </a>\\n                </div>\\n                <div class="col-sm-6 portfolio-item">\\n                    <a href="//www.hankim.io/sociagora" target="blank" class="portfolio-link" data-toggle="modal">\\n                        <div class="caption">\\n                            <div class="caption-content">\\n                                <i class="fa fa-search-plus fa-3x"></i>\\n                            </div>\\n                        </div>\\n                        <img src="\', escape=False)\nresponse.write(URL(\'static\', \'img\'))\nresponse.write(\'/portfolio/sociagora.png" class="img-responsive" alt="">\\n                    </a>\\n                </div>\\n                <div class="col-sm-6 portfolio-item">\\n                    <a href="//www.hankim.io/kivaflava" target="blank" class="portfolio-link" data-toggle="modal">\\n                        <div class="caption">\\n                            <div class="caption-content">\\n                                <i class="fa fa-search-plus fa-3x"></i>\\n                            </div>\\n                        </div>\\n                        <img src="\', escape=False)\nresponse.write(URL(\'static\', \'img\'))\nresponse.write(\'/portfolio/kivaflava.png" class="img-responsive" alt="">\\n                    </a>\\n                </div>\\n            </div>\\n        </div>\\n    </section>\\n\\n    <!-- About Section -->\\n    <section class="success" id="about">\\n        <div class="container">\\n            <div class="row">\\n                <div class="col-lg-12 text-center">\\n                    <h2>and write stuff...</h2>\\n                    <hr class="star-light">\\n                </div>\\n            </div>\\n            <div class="row">\\n                <div class="col-sm-8 col-sm-offset-2 text-center">\\n                    <a href="//192.168.0.10" target="blank" class="portfolio-link" data-toggle="modal">\\n                        <div class="caption">\\n                            <div class="caption-content">\\n                                <i class="fa fa-search-plus fa-3x"></i>\\n                            </div>\\n                        </div>\\n                        <img src="\', escape=False)\nresponse.write(URL(\'static\', \'img\'))\nresponse.write(\'/portfolio/blog.png" class="img-responsive" alt="">\\n                    </a>\\n                </div>\\n            </div>\\n        </div>\\n    </section>\\n\\n    <!-- Footer -->\\n    <footer id="footer" class="text-center">\\n        <div class="footer-above">\\n            <div class="container">\\n                <div class="row">\\n                    <div class="footer-col col-md-12">\\n                        <h3>Find me?</h3>\\n                        <ul class="list-inline">\\n                            <li>\\n                                <a href="https://twitter.com/yogurtjam" target="blank" class="btn-social btn-outline"><i class="fa fa-fw fa-twitter"></i></a>\\n                            </li>\\n                            <li>\\n                                <a href="https://github.com/carlessAngeleno" target="blank" class="btn-social btn-outline"><i class="fa fa-fw fa-github"></i></a>\\n                            </li>\\n                        </ul>\\n                    </div>\\n                </div>\\n            </div>\\n        </div>\\n        <div class="footer-below">\\n            <div class="container">\\n                <div class="row">\\n                    <div class="col-lg-12">\\n                        Copyright &copy; Han Kim 2015\\n                    </div>\\n                </div>\\n            </div>\\n        </div>\\n    </footer>\\n\\n    <!-- Scroll to Top Button (Only visible on small and extra-small screen sizes) -->\\n    <div class="scroll-top page-scroll visible-xs visble-sm">\\n        <a class="btn btn-primary" href="#page-top">\\n            <i class="fa fa-chevron-up"></i>\\n        </a>\\n    </div>\\n\\n    <!-- Portfolio Modals -->\\n<!--     <div class="portfolio-modal modal fade" id="portfolioModal1" tabindex="-1" role="dialog" aria-hidden="true">\\n        <div class="modal-content">\\n            <div class="close-modal" data-dismiss="modal">\\n                <div class="lr">\\n                    <div class="rl">\\n                    </div>\\n                </div>\\n            </div>\\n            <div class="container">\\n                <div class="row">\\n                    <div class="col-lg-8 col-lg-offset-2">\\n                        <div class="modal-body">\\n                            <h2>Project Title</h2>\\n                            <hr class="star-primary">\\n                            <img src="\', escape=False)\nresponse.write(URL(\'static\', \'img\'))\nresponse.write(\'/portfolio/cabin.png" class="img-responsive img-centered" alt="">\\n                            <p>Use this area of the page to describe your project. The icon above is part of a free icon set by <a href="https://sellfy.com/p/8Q9P/jV3VZ/">Flat Icons</a>. On their website, you can download their free set with 16 icons, or you can purchase the entire set with 146 icons for only $12!</p>\\n                            <ul class="list-inline item-details">\\n                                <li>Client:\\n                                    <strong><a href="http://startbootstrap.com">Start Bootstrap</a>\\n                                    </strong>\\n                                </li>\\n                                <li>Date:\\n                                    <strong><a href="http://startbootstrap.com">April 2014</a>\\n                                    </strong>\\n                                </li>\\n                                <li>Service:\\n                                    <strong><a href="http://startbootstrap.com">Web Development</a>\\n                                    </strong>\\n                                </li>\\n                            </ul>\\n                            <button type="button" class="btn btn-default" data-dismiss="modal"><i class="fa fa-times"></i> Close</button>\\n                        </div>\\n                    </div>\\n                </div>\\n            </div>\\n        </div>\\n    </div>\\n    <div class="portfolio-modal modal fade" id="portfolioModal2" tabindex="-1" role="dialog" aria-hidden="true">\\n        <div class="modal-content">\\n            <div class="close-modal" data-dismiss="modal">\\n                <div class="lr">\\n                    <div class="rl">\\n                    </div>\\n                </div>\\n            </div>\\n            <div class="container">\\n                <div class="row">\\n                    <div class="col-lg-8 col-lg-offset-2">\\n                        <div class="modal-body">\\n                            <h2>Project Title</h2>\\n                            <hr class="star-primary">\\n                            <img src="\', escape=False)\nresponse.write(URL(\'static\', \'img\'))\nresponse.write(\'/portfolio/cake.png" class="img-responsive img-centered" alt="">\\n                            <p>Use this area of the page to describe your project. The icon above is part of a free icon set by <a href="https://sellfy.com/p/8Q9P/jV3VZ/">Flat Icons</a>. On their website, you can download their free set with 16 icons, or you can purchase the entire set with 146 icons for only $12!</p>\\n                            <ul class="list-inline item-details">\\n                                <li>Client:\\n                                    <strong><a href="http://startbootstrap.com">Start Bootstrap</a>\\n                                    </strong>\\n                                </li>\\n                                <li>Date:\\n                                    <strong><a href="http://startbootstrap.com">April 2014</a>\\n                                    </strong>\\n                                </li>\\n                                <li>Service:\\n                                    <strong><a href="http://startbootstrap.com">Web Development</a>\\n                                    </strong>\\n                                </li>\\n                            </ul>\\n                            <button type="button" class="btn btn-default" data-dismiss="modal"><i class="fa fa-times"></i> Close</button>\\n                        </div>\\n                    </div>\\n                </div>\\n            </div>\\n        </div>\\n    </div>\\n    <div class="portfolio-modal modal fade" id="portfolioModal3" tabindex="-1" role="dialog" aria-hidden="true">\\n        <div class="modal-content">\\n            <div class="close-modal" data-dismiss="modal">\\n                <div class="lr">\\n                    <div class="rl">\\n                    </div>\\n                </div>\\n            </div>\\n            <div class="container">\\n                <div class="row">\\n                    <div class="col-lg-8 col-lg-offset-2">\\n                        <div class="modal-body">\\n                            <h2>Project Title</h2>\\n                            <hr class="star-primary">\\n                            <img src="\', escape=False)\nresponse.write(URL(\'static\', \'img\'))\nresponse.write(\'/portfolio/circus.png" class="img-responsive img-centered" alt="">\\n                            <p>Use this area of the page to describe your project. The icon above is part of a free icon set by <a href="https://sellfy.com/p/8Q9P/jV3VZ/">Flat Icons</a>. On their website, you can download their free set with 16 icons, or you can purchase the entire set with 146 icons for only $12!</p>\\n                            <ul class="list-inline item-details">\\n                                <li>Client:\\n                                    <strong><a href="http://startbootstrap.com">Start Bootstrap</a>\\n                                    </strong>\\n                                </li>\\n                                <li>Date:\\n                                    <strong><a href="http://startbootstrap.com">April 2014</a>\\n                                    </strong>\\n                                </li>\\n                                <li>Service:\\n                                    <strong><a href="http://startbootstrap.com">Web Development</a>\\n                                    </strong>\\n                                </li>\\n                            </ul>\\n                            <button type="button" class="btn btn-default" data-dismiss="modal"><i class="fa fa-times"></i> Close</button>\\n                        </div>\\n                    </div>\\n                </div>\\n            </div>\\n        </div>\\n    </div>\\n    <div class="portfolio-modal modal fade" id="portfolioModal4" tabindex="-1" role="dialog" aria-hidden="true">\\n        <div class="modal-content">\\n            <div class="close-modal" data-dismiss="modal">\\n                <div class="lr">\\n                    <div class="rl">\\n                    </div>\\n                </div>\\n            </div>\\n            <div class="container">\\n                <div class="row">\\n                    <div class="col-lg-8 col-lg-offset-2">\\n                        <div class="modal-body">\\n                            <h2>Project Title</h2>\\n                            <hr class="star-primary">\\n                            <img src="\', escape=False)\nresponse.write(URL(\'static\', \'img\'))\nresponse.write(\'/portfolio/game.png" class="img-responsive img-centered" alt="">\\n                            <p>Use this area of the page to describe your project. The icon above is part of a free icon set by <a href="https://sellfy.com/p/8Q9P/jV3VZ/">Flat Icons</a>. On their website, you can download their free set with 16 icons, or you can purchase the entire set with 146 icons for only $12!</p>\\n                            <ul class="list-inline item-details">\\n                                <li>Client:\\n                                    <strong><a href="http://startbootstrap.com">Start Bootstrap</a>\\n                                    </strong>\\n                                </li>\\n                                <li>Date:\\n                                    <strong><a href="http://startbootstrap.com">April 2014</a>\\n                                    </strong>\\n                                </li>\\n                                <li>Service:\\n                                    <strong><a href="http://startbootstrap.com">Web Development</a>\\n                                    </strong>\\n                                </li>\\n                            </ul>\\n                            <button type="button" class="btn btn-default" data-dismiss="modal"><i class="fa fa-times"></i> Close</button>\\n                        </div>\\n                    </div>\\n                </div>\\n            </div>\\n        </div>\\n    </div>\\n    <div class="portfolio-modal modal fade" id="portfolioModal5" tabindex="-1" role="dialog" aria-hidden="true">\\n        <div class="modal-content">\\n            <div class="close-modal" data-dismiss="modal">\\n                <div class="lr">\\n                    <div class="rl">\\n                    </div>\\n                </div>\\n            </div>\\n            <div class="container">\\n                <div class="row">\\n                    <div class="col-lg-8 col-lg-offset-2">\\n                        <div class="modal-body">\\n                            <h2>Project Title</h2>\\n                            <hr class="star-primary">\\n                            <img src="\', escape=False)\nresponse.write(URL(\'static\', \'img\'))\nresponse.write(\'/portfolio/safe.png" class="img-responsive img-centered" alt="">\\n                            <p>Use this area of the page to describe your project. The icon above is part of a free icon set by <a href="https://sellfy.com/p/8Q9P/jV3VZ/">Flat Icons</a>. On their website, you can download their free set with 16 icons, or you can purchase the entire set with 146 icons for only $12!</p>\\n                            <ul class="list-inline item-details">\\n                                <li>Client:\\n                                    <strong><a href="http://startbootstrap.com">Start Bootstrap</a>\\n                                    </strong>\\n                                </li>\\n                                <li>Date:\\n                                    <strong><a href="http://startbootstrap.com">April 2014</a>\\n                                    </strong>\\n                                </li>\\n                                <li>Service:\\n                                    <strong><a href="http://startbootstrap.com">Web Development</a>\\n                                    </strong>\\n                                </li>\\n                            </ul>\\n                            <button type="button" class="btn btn-default" data-dismiss="modal"><i class="fa fa-times"></i> Close</button>\\n                        </div>\\n                    </div>\\n                </div>\\n            </div>\\n        </div>\\n    </div> -->\\n\\n    <!-- jQuery -->\\n    <script src="\', escape=False)\nresponse.write(URL(\'static\', \'js\'))\nresponse.write(\'/jquery.js"></script>\\n\\n    <!-- Bootstrap Core JavaScript -->\\n    <script src="\', escape=False)\nresponse.write(URL(\'static\', \'js\'))\nresponse.write(\'/bootstrap.min.js"></script>\\n\\n    <!-- Plugin JavaScript -->\\n    <script src="//cdnjs.cloudflare.com/ajax/libs/jquery-easing/1.3/jquery.easing.min.js"></script>\\n    <script src="\', escape=False)\nresponse.write(URL(\'static\', \'js\'))\nresponse.write(\'/classie.js"></script>\\n    <script src="\', escape=False)\nresponse.write(URL(\'static\', \'js\'))\nresponse.write(\'/cbpAnimatedHeader.js"></script>\\n\\n    <!-- Contact Form JavaScript -->\\n    <script src="\', escape=False)\nresponse.write(URL(\'static\', \'js\'))\nresponse.write(\'/jqBootstrapValidation.js"></script>\\n    <script src="\', escape=False)\nresponse.write(URL(\'static\', \'js\'))\nresponse.write(\'/contact_me.js"></script>\\n\\n    <!-- Custom Theme JavaScript -->\\n    <script src="\', escape=False)\nresponse.write(URL(\'static\', \'js\'))\nresponse.write(\'/freelancer.js"></script>\\n\\n</body>\\n\\n</html>\\n\', escape=False)'
p7
sS'snapshot'
p8
(dp9
S'exception'
p10
(dp11
S'__hash__'
p12
S"<method-wrapper '__hash__' of exceptions.TypeError object>"
p13
sS'__setattr__'
p14
S"<method-wrapper '__setattr__' of exceptions.TypeError object>"
p15
sS'__reduce_ex__'
p16
S'<built-in method __reduce_ex__ of exceptions.TypeError object>'
p17
sS'__getslice__'
p18
S"<method-wrapper '__getslice__' of exceptions.TypeError object>"
p19
sS'__getitem__'
p20
S"<method-wrapper '__getitem__' of exceptions.TypeError object>"
p21
sS'__setstate__'
p22
S'<built-in method __setstate__ of exceptions.TypeError object>'
p23
sS'args'
p24
S'("URL() got an unexpected keyword argument \'application\'",)'
p25
sS'__reduce__'
p26
S'<built-in method __reduce__ of exceptions.TypeError object>'
p27
sS'__str__'
p28
S"<method-wrapper '__str__' of exceptions.TypeError object>"
p29
sS'__format__'
p30
S'<built-in method __format__ of exceptions.TypeError object>'
p31
sS'__getattribute__'
p32
S"<method-wrapper '__getattribute__' of exceptions.TypeError object>"
p33
sS'__class__'
p34
S"<type 'exceptions.TypeError'>"
p35
sS'__unicode__'
p36
S'<built-in method __unicode__ of exceptions.TypeError object>'
p37
sS'__delattr__'
p38
S"<method-wrapper '__delattr__' of exceptions.TypeError object>"
p39
sS'__subclasshook__'
p40
S'<built-in method __subclasshook__ of type object>'
p41
sS'__repr__'
p42
S"<method-wrapper '__repr__' of exceptions.TypeError object>"
p43
sS'__dict__'
p44
S'{}'
p45
sS'__sizeof__'
p46
S'<built-in method __sizeof__ of exceptions.TypeError object>'
p47
sS'__doc__'
p48
S"'Inappropriate argument type.'"
p49
sS'__init__'
p50
S"<method-wrapper '__init__' of exceptions.TypeError object>"
p51
sS'__new__'
p52
S'<built-in method __new__ of type object>'
p53
ssS'evalue'
p54
S"URL() got an unexpected keyword argument 'application'"
p55
sS'request'
p56
cgluon.html
XML_unpickle
p57
(S's+v\x00\x00<div><table><tr><td style="font-weight:bold;vertical-align:top;">ajax</td><td style="vertical-align:top;">:</td><td><div>False</div></td></tr><tr><td style="font-weight:bold;vertical-align:top;">application</td><td style="vertical-align:top;">:</td><td><div>portfolio</div></td></tr><tr><td style="font-weight:bold;vertical-align:top;">args</td><td style="vertical-align:top;">:</td><td><div><table></table></div></td></tr><tr><td style="font-weight:bold;vertical-align:top;">cid</td><td style="vertical-align:top;">:</td><td><div>None</div></td></tr><tr><td style="font-weight:bold;vertical-align:top;">client</td><td style="vertical-align:top;">:</td><td><div>127.0.0.1</div></td></tr><tr><td style="font-weight:bold;vertical-align:top;">controller</td><td style="vertical-align:top;">:</td><td><div>default</div></td></tr><tr><td style="font-weight:bold;vertical-align:top;">cookies</td><td style="vertical-align:top;">:</td><td><div><table><tr><td style="font-weight:bold;vertical-align:top;">session_id_admin</td><td style="vertical-align:top;">:</td><td><div>127.0.0.1-94921d45-1a57-4a78-b416-82e6cff6c5dd<table><tr><td style="font-weight:bold;vertical-align:top;">comment</td><td style="vertical-align:top;">:</td><td><div></div></td></tr><tr><td style="font-weight:bold;vertical-align:top;">domain</td><td style="vertical-align:top;">:</td><td><div></div></td></tr><tr><td style="font-weight:bold;vertical-align:top;">expires</td><td style="vertical-align:top;">:</td><td><div></div></td></tr><tr><td style="font-weight:bold;vertical-align:top;">httponly</td><td style="vertical-align:top;">:</td><td><div></div></td></tr><tr><td style="font-weight:bold;vertical-align:top;">max-age</td><td style="vertical-align:top;">:</td><td><div></div></td></tr><tr><td style="font-weight:bold;vertical-align:top;">path</td><td style="vertical-align:top;">:</td><td><div></div></td></tr><tr><td style="font-weight:bold;vertical-align:top;">secure</td><td style="vertical-align:top;">:</td><td><div></div></td></tr><tr><td style="font-weight:bold;vertical-align:top;">version</td><td style="vertical-align:top;">:</td><td><div></div></td></tr></table></div></td></tr><tr><td style="font-weight:bold;vertical-align:top;">session_id_init</td><td style="vertical-align:top;">:</td><td><div>127.0.0.1-e1310b21-8984-4165-9bef-35c125f4e850<table><tr><td style="font-weight:bold;vertical-align:top;">comment</td><td style="vertical-align:top;">:</td><td><div></div></td></tr><tr><td style="font-weight:bold;vertical-align:top;">domain</td><td style="vertical-align:top;">:</td><td><div></div></td></tr><tr><td style="font-weight:bold;vertical-align:top;">expires</td><td style="vertical-align:top;">:</td><td><div></div></td></tr><tr><td style="font-weight:bold;vertical-align:top;">httponly</td><td style="vertical-align:top;">:</td><td><div></div></td></tr><tr><td style="font-weight:bold;vertical-align:top;">max-age</td><td style="vertical-align:top;">:</td><td><div></div></td></tr><tr><td style="font-weight:bold;vertical-align:top;">path</td><td style="vertical-align:top;">:</td><td><div></div></td></tr><tr><td style="font-weight:bold;vertical-align:top;">secure</td><td style="vertical-align:top;">:</td><td><div></div></td></tr><tr><td style="font-weight:bold;vertical-align:top;">version</td><td style="vertical-align:top;">:</td><td><div></div></td></tr></table></div></td></tr><tr><td style="font-weight:bold;vertical-align:top;">session_id_isthisarepost</td><td style="vertical-align:top;">:</td><td><div>127.0.0.1-73c34925-b548-4be6-bafc-de7155ecdb0f<table><tr><td style="font-weight:bold;vertical-align:top;">comment</td><td style="vertical-align:top;">:</td><td><div></div></td></tr><tr><td style="font-weight:bold;vertical-align:top;">domain</td><td style="vertical-align:top;">:</td><td><div></div></td></tr><tr><td style="font-weight:bold;vertical-align:top;">expires</td><td style="vertical-align:top;">:</td><td><div></div></td></tr><tr><td style="font-weight:bold;vertical-align:top;">httponly</td><td style="vertical-align:top;">:</td><td><div></div></td></tr><tr><td style="font-weight:bold;vertical-align:top;">max-age</td><td style="vertical-align:top;">:</td><td><div></div></td></tr><tr><td style="font-weight:bold;vertical-align:top;">path</td><td style="vertical-align:top;">:</td><td><div></div></td></tr><tr><td style="font-weight:bold;vertical-align:top;">secure</td><td style="vertical-align:top;">:</td><td><div></div></td></tr><tr><td style="font-weight:bold;vertical-align:top;">version</td><td style="vertical-align:top;">:</td><td><div></div></td></tr></table></div></td></tr><tr><td style="font-weight:bold;vertical-align:top;">session_id_kivaflava</td><td style="vertical-align:top;">:</td><td><div>127.0.0.1-8b8c830a-4090-44f6-996d-bf94959721d1<table><tr><td style="font-weight:bold;vertical-align:top;">comment</td><td style="vertical-align:top;">:</td><td><div></div></td></tr><tr><td style="font-weight:bold;vertical-align:top;">domain</td><td style="vertical-align:top;">:</td><td><div></div></td></tr><tr><td style="font-weight:bold;vertical-align:top;">expires</td><td style="vertical-align:top;">:</td><td><div></div></td></tr><tr><td style="font-weight:bold;vertical-align:top;">httponly</td><td style="vertical-align:top;">:</td><td><div></div></td></tr><tr><td style="font-weight:bold;vertical-align:top;">max-age</td><td style="vertical-align:top;">:</td><td><div></div></td></tr><tr><td style="font-weight:bold;vertical-align:top;">path</td><td style="vertical-align:top;">:</td><td><div></div></td></tr><tr><td style="font-weight:bold;vertical-align:top;">secure</td><td style="vertical-align:top;">:</td><td><div></div></td></tr><tr><td style="font-weight:bold;vertical-align:top;">version</td><td style="vertical-align:top;">:</td><td><div></div></td></tr></table></div></td></tr><tr><td style="font-weight:bold;vertical-align:top;">session_id_portfolio</td><td style="vertical-align:top;">:</td><td><div>127.0.0.1-e8bc0b89-c4ce-45fb-ae1c-edd253260e0e<table><tr><td style="font-weight:bold;vertical-align:top;">comment</td><td style="vertical-align:top;">:</td><td><div></div></td></tr><tr><td style="font-weight:bold;vertical-align:top;">domain</td><td style="vertical-align:top;">:</td><td><div></div></td></tr><tr><td style="font-weight:bold;vertical-align:top;">expires</td><td style="vertical-align:top;">:</td><td><div></div></td></tr><tr><td style="font-weight:bold;vertical-align:top;">httponly</td><td style="vertical-align:top;">:</td><td><div></div></td></tr><tr><td style="font-weight:bold;vertical-align:top;">max-age</td><td style="vertical-align:top;">:</td><td><div></div></td></tr><tr><td style="font-weight:bold;vertical-align:top;">path</td><td style="vertical-align:top;">:</td><td><div></div></td></tr><tr><td style="font-weight:bold;vertical-align:top;">secure</td><td style="vertical-align:top;">:</td><td><div></div></td></tr><tr><td style="font-weight:bold;vertical-align:top;">version</td><td style="vertical-align:top;">:</td><td><div></div></td></tr></table></div></td></tr><tr><td style="font-weight:bold;vertical-align:top;">session_id_sociagora</td><td style="vertical-align:top;">:</td><td><div>127.0.0.1-026af0e5-e336-426b-b0d6-dd9169c0e7c6<table><tr><td style="font-weight:bold;vertical-align:top;">comment</td><td style="vertical-align:top;">:</td><td><div></div></td></tr><tr><td style="font-weight:bold;vertical-align:top;">domain</td><td style="vertical-align:top;">:</td><td><div></div></td></tr><tr><td style="font-weight:bold;vertical-align:top;">expires</td><td style="vertical-align:top;">:</td><td><div></div></td></tr><tr><td style="font-weight:bold;vertical-align:top;">httponly</td><td style="vertical-align:top;">:</td><td><div></div></td></tr><tr><td style="font-weight:bold;vertical-align:top;">max-age</td><td style="vertical-align:top;">:</td><td><div></div></td></tr><tr><td style="font-weight:bold;vertical-align:top;">path</td><td style="vertical-align:top;">:</td><td><div></div></td></tr><tr><td style="font-weight:bold;vertical-align:top;">secure</td><td style="vertical-align:top;">:</td><td><div></div></td></tr><tr><td style="font-weight:bold;vertical-align:top;">version</td><td style="vertical-align:top;">:</td><td><div></div></td></tr></table></div></td></tr><tr><td style="font-weight:bold;vertical-align:top;">session_id_welcome</td><td style="vertical-align:top;">:</td><td><div>127.0.0.1-ddb02c67-bca4-4a17-9f2a-bf9ca3887169<table><tr><td style="font-weight:bold;vertical-align:top;">comment</td><td style="vertical-align:top;">:</td><td><div></div></td></tr><tr><td style="font-weight:bold;vertical-align:top;">domain</td><td style="vertical-align:top;">:</td><td><div></div></td></tr><tr><td style="font-weight:bold;vertical-align:top;">expires</td><td style="vertical-align:top;">:</td><td><div></div></td></tr><tr><td style="font-weight:bold;vertical-align:top;">httponly</td><td style="vertical-align:top;">:</td><td><div></div></td></tr><tr><td style="font-weight:bold;vertical-align:top;">max-age</td><td style="vertical-align:top;">:</td><td><div></div></td></tr><tr><td style="font-weight:bold;vertical-align:top;">path</td><td style="vertical-align:top;">:</td><td><div></div></td></tr><tr><td style="font-weight:bold;vertical-align:top;">secure</td><td style="vertical-align:top;">:</td><td><div></div></td></tr><tr><td style="font-weight:bold;vertical-align:top;">version</td><td style="vertical-align:top;">:</td><td><div></div></td></tr></table></div></td></tr><tr><td style="font-weight:bold;vertical-align:top;">session_id_yogurtjam</td><td style="vertical-align:top;">:</td><td><div>196:bfafcb6b-367a-4a52-b6de-c78e22cda17e<table><tr><td style="font-weight:bold;vertical-align:top;">comment</td><td style="vertical-align:top;">:</td><td><div></div></td></tr><tr><td style="font-weight:bold;vertical-align:top;">domain</td><td style="vertical-align:top;">:</td><td><div></div></td></tr><tr><td style="font-weight:bold;vertical-align:top;">expires</td><td style="vertical-align:top;">:</td><td><div></div></td></tr><tr><td style="font-weight:bold;vertical-align:top;">httponly</td><td style="vertical-align:top;">:</td><td><div></div></td></tr><tr><td style="font-weight:bold;vertical-align:top;">max-age</td><td style="vertical-align:top;">:</td><td><div></div></td></tr><tr><td style="font-weight:bold;vertical-align:top;">path</td><td style="vertical-align:top;">:</td><td><div></div></td></tr><tr><td style="font-weight:bold;vertical-align:top;">secure</td><td style="vertical-align:top;">:</td><td><div></div></td></tr><tr><td style="font-weight:bold;vertical-align:top;">version</td><td style="vertical-align:top;">:</td><td><div></div></td></tr></table></div></td></tr></table></div></td></tr><tr><td style="font-weight:bold;vertical-align:top;">env</td><td style="vertical-align:top;">:</td><td><div><table><tr><td style="font-weight:bold;vertical-align:top;">HTTP_ACCEPT</td><td style="vertical-align:top;">:</td><td><div>text/html,application/xhtml+xml,application/xml;q=0.9,image/webp,*/*;q=0.8</div></td></tr><tr><td style="font-weight:bold;vertical-align:top;">HTTP_ACCEPT_ENCODING</td><td style="vertical-align:top;">:</td><td><div>gzip,deflate,sdch</div></td></tr><tr><td style="font-weight:bold;vertical-align:top;">HTTP_ACCEPT_LANGUAGE</td><td style="vertical-align:top;">:</td><td><div>en-US,en;q=0.8</div></td></tr><tr><td style="font-weight:bold;vertical-align:top;">HTTP_CACHE_CONTROL</td><td style="vertical-align:top;">:</td><td><div>max-age=0</div></td></tr><tr><td style="font-weight:bold;vertical-align:top;">HTTP_CONNECTION</td><td style="vertical-align:top;">:</td><td><div>keep-alive</div></td></tr><tr><td style="font-weight:bold;vertical-align:top;">HTTP_COOKIE</td><td style="vertical-align:top;">:</td><td><div>session_id_welcome=127.0.0.1-ddb02c67-bca4-4a17-9f2a-bf9ca3887169; session_id_yogurtjam=&quot;196:bfafcb6b-367a-4a52-b6de-c78e22cda17e&quot;; session_id_isthisarepost=127.0.0.1-73c34925-b548-4be6-bafc-de7155ecdb0f; session_id_sociagora=127.0.0.1-026af0e5-e336-426b-b0d6-dd9169c0e7c6; session_id_kivaflava=127.0.0.1-8b8c830a-4090-44f6-996d-bf94959721d1; session_id_init=127.0.0.1-e1310b21-8984-4165-9bef-35c125f4e850; session_id_admin=127.0.0.1-94921d45-1a57-4a78-b416-82e6cff6c5dd; session_id_portfolio=127.0.0.1-e8bc0b89-c4ce-45fb-ae1c-edd253260e0e</div></td></tr><tr><td style="font-weight:bold;vertical-align:top;">HTTP_HOST</td><td style="vertical-align:top;">:</td><td><div>127.0.0.1:8000</div></td></tr><tr><td style="font-weight:bold;vertical-align:top;">HTTP_USER_AGENT</td><td style="vertical-align:top;">:</td><td><div>Mozilla/5.0 (X11; Linux x86_64) AppleWebKit/537.36 (KHTML, like Gecko) Chrome/37.0.2062.120 Safari/537.36</div></td></tr><tr><td style="font-weight:bold;vertical-align:top;">PATH_INFO</td><td style="vertical-align:top;">:</td><td><div>/portfolio</div></td></tr><tr><td style="font-weight:bold;vertical-align:top;">QUERY_STRING</td><td style="vertical-align:top;">:</td><td><div></div></td></tr><tr><td style="font-weight:bold;vertical-align:top;">REMOTE_ADDR</td><td style="vertical-align:top;">:</td><td><div>127.0.0.1</div></td></tr><tr><td style="font-weight:bold;vertical-align:top;">REMOTE_PORT</td><td style="vertical-align:top;">:</td><td><div>52285</div></td></tr><tr><td style="font-weight:bold;vertical-align:top;">REQUEST_METHOD</td><td style="vertical-align:top;">:</td><td><div>GET</div></td></tr><tr><td style="font-weight:bold;vertical-align:top;">SCRIPT_NAME</td><td style="vertical-align:top;">:</td><td><div></div></td></tr><tr><td style="font-weight:bold;vertical-align:top;">SERVER_NAME</td><td style="vertical-align:top;">:</td><td><div>han</div></td></tr><tr><td style="font-weight:bold;vertical-align:top;">SERVER_PORT</td><td style="vertical-align:top;">:</td><td><div>8000</div></td></tr><tr><td style="font-weight:bold;vertical-align:top;">SERVER_PROTOCOL</td><td style="vertical-align:top;">:</td><td><div>HTTP/1.1</div></td></tr><tr><td style="font-weight:bold;vertical-align:top;">SERVER_SOFTWARE</td><td style="vertical-align:top;">:</td><td><div>Rocket 1.2.6</div></td></tr><tr><td style="font-weight:bold;vertical-align:top;">app_folders</td><td style="vertical-align:top;">:</td><td><div>set([&#x27;/home/han/Dropbox/web2py/applications/admin/&#x27;, &#x27;/home/han/Dropbox/web2py/applications/yogurtjam/&#x27;, &#x27;/home/han/Dropbox/web2py/applications/isthisarepost/&#x27;, &#x27;/home/han/Dropbox/web2py/applications/kivaflava/&#x27;, &#x27;/home/han/Dropbox/web2py/applications/init/&#x27;, &#x27;/home/han/Dropbox/web2py/applications/portfolio/&#x27;, &#x27;/home/han/Dropbox/web2py/applications/sociagora/&#x27;])</div></td></tr><tr><td style="font-weight:bold;vertical-align:top;">applications_parent</td><td style="vertical-align:top;">:</td><td><div>/home/han/Dropbox/web2py</div></td></tr><tr><td style="font-weight:bold;vertical-align:top;">cmd_args</td><td style="vertical-align:top;">:</td><td><div><table></table></div></td></tr><tr><td style="font-weight:bold;vertical-align:top;">cmd_options</td><td style="vertical-align:top;">:</td><td><div>&lt;Values at 0x7fab61172098: {&#x27;verbose&#x27;: False, &#x27;ip&#x27;: &#x27;127.0.0.1&#x27;, &#x27;debuglevel&#x27;: 30, &#x27;with_scheduler&#x27;: False, &#x27;ips&#x27;: [&#x27;127.0.1.1&#x27;], &#x27;shutdown_timeout&#x27;: 5, &#x27;taskbar&#x27;: False, &#x27;with_coverage&#x27;: False, &#x27;port&#x27;: 8000, &#x27;maxthreads&#x27;: None, &#x27;softcron&#x27;: False, &#x27;server_name&#x27;: &#x27;han&#x27;, &#x27;bpython&#x27;: False, &#x27;nogui&#x27;: False, &#x27;pid_filename&#x27;: &#x27;httpserver.pid&#x27;, &#x27;extcron&#x27;: False, &#x27;runcron&#x27;: False, &#x27;run_system_tests&#x27;: False, &#x27;test&#x27;: None, &#x27;folder&#x27;: &#x27;/home/han/Dropbox/web2py&#x27;, &#x27;config&#x27;: &#x27;&#x27;, &#x27;minthreads&#x27;: None, &#x27;shell&#x27;: None, &#x27;run&#x27;: &#x27;&#x27;, &#x27;log_filename&#x27;: &#x27;httpserver.log&#x27;, &#x27;profiler_dir&#x27;: None, &#x27;args&#x27;: [&#x27;&#x27;], &#x27;socket_timeout&#x27;: 5, &#x27;ssl_ca_certificate&#x27;: None, &#x27;scheduler&#x27;: None, &#x27;interfaces&#x27;: None, &#x27;ssl_private_key&#x27;: &#x27;&#x27;, &#x27;scheduler_groups&#x27;: None, &#x27;password&#x27;: &#x27;&lt;ask&gt;&#x27;, &#x27;request_queue_size&#x27;: 5, &#x27;ssl_certificate&#x27;: &#x27;&#x27;, &#x27;cronjob&#x27;: False, &#x27;numthreads&#x27;: None, &#x27;quiet&#x27;: False, &#x27;import_models&#x27;: False, &#x27;timeout&#x27;: 10, &#x27;plain&#x27;: False, &#x27;nobanner&#x27;: False}&gt;</div></td></tr><tr><td style="font-weight:bold;vertical-align:top;">db_sessions</td><td style="vertical-align:top;">:</td><td><div>set([&#x27;yogurtjam&#x27;])</div></td></tr><tr><td style="font-weight:bold;vertical-align:top;">debugging</td><td style="vertical-align:top;">:</td><td><div>False</div></td></tr><tr><td style="font-weight:bold;vertical-align:top;">gluon_parent</td><td style="vertical-align:top;">:</td><td><div>/home/han/Dropbox/web2py</div></td></tr><tr><td style="font-weight:bold;vertical-align:top;">http_accept</td><td style="vertical-align:top;">:</td><td><div>text/html,application/xhtml+xml,application/xml;q=0.9,image/webp,*/*;q=0.8</div></td></tr><tr><td style="font-weight:bold;vertical-align:top;">http_accept_encoding</td><td style="vertical-align:top;">:</td><td><div>gzip,deflate,sdch</div></td></tr><tr><td style="font-weight:bold;vertical-align:top;">http_accept_language</td><td style="vertical-align:top;">:</td><td><div>en-US,en;q=0.8</div></td></tr><tr><td style="font-weight:bold;vertical-align:top;">http_cache_control</td><td style="vertical-align:top;">:</td><td><div>max-age=0</div></td></tr><tr><td style="font-weight:bold;vertical-align:top;">http_connection</td><td style="vertical-align:top;">:</td><td><div>keep-alive</div></td></tr><tr><td style="font-weight:bold;vertical-align:top;">http_cookie</td><td style="vertical-align:top;">:</td><td><div>session_id_welcome=127.0.0.1-ddb02c67-bca4-4a17-9f2a-bf9ca3887169; session_id_yogurtjam=&quot;196:bfafcb6b-367a-4a52-b6de-c78e22cda17e&quot;; session_id_isthisarepost=127.0.0.1-73c34925-b548-4be6-bafc-de7155ecdb0f; session_id_sociagora=127.0.0.1-026af0e5-e336-426b-b0d6-dd9169c0e7c6; session_id_kivaflava=127.0.0.1-8b8c830a-4090-44f6-996d-bf94959721d1; session_id_init=127.0.0.1-e1310b21-8984-4165-9bef-35c125f4e850; session_id_admin=127.0.0.1-94921d45-1a57-4a78-b416-82e6cff6c5dd; session_id_portfolio=127.0.0.1-e8bc0b89-c4ce-45fb-ae1c-edd253260e0e</div></td></tr><tr><td style="font-weight:bold;vertical-align:top;">http_host</td><td style="vertical-align:top;">:</td><td><div>127.0.0.1:8000</div></td></tr><tr><td style="font-weight:bold;vertical-align:top;">http_user_agent</td><td style="vertical-align:top;">:</td><td><div>Mozilla/5.0 (X11; Linux x86_64) AppleWebKit/537.36 (KHTML, like Gecko) Chrome/37.0.2062.120 Safari/537.36</div></td></tr><tr><td style="font-weight:bold;vertical-align:top;">is_jython</td><td style="vertical-align:top;">:</td><td><div>False</div></td></tr><tr><td style="font-weight:bold;vertical-align:top;">is_pypy</td><td style="vertical-align:top;">:</td><td><div>False</div></td></tr><tr><td style="font-weight:bold;vertical-align:top;">is_source</td><td style="vertical-align:top;">:</td><td><div>True</div></td></tr><tr><td style="font-weight:bold;vertical-align:top;">local_hosts</td><td style="vertical-align:top;">:</td><td><div><table><tr><td><div>127.0.1.1</div></td></tr><tr><td><div>::1</div></td></tr><tr><td><div>han</div></td></tr><tr><td><div>::ffff:127.0.0.1</div></td></tr><tr><td><div>127.0.0.1</div></td></tr></table></div></td></tr><tr><td style="font-weight:bold;vertical-align:top;">path_info</td><td style="vertical-align:top;">:</td><td><div>/portfolio</div></td></tr><tr><td style="font-weight:bold;vertical-align:top;">query_string</td><td style="vertical-align:top;">:</td><td><div></div></td></tr><tr><td style="font-weight:bold;vertical-align:top;">remote_addr</td><td style="vertical-align:top;">:</td><td><div>127.0.0.1</div></td></tr><tr><td style="font-weight:bold;vertical-align:top;">remote_port</td><td style="vertical-align:top;">:</td><td><div>52285</div></td></tr><tr><td style="font-weight:bold;vertical-align:top;">request_method</td><td style="vertical-align:top;">:</td><td><div>GET</div></td></tr><tr><td style="font-weight:bold;vertical-align:top;">request_uri</td><td style="vertical-align:top;">:</td><td><div>/portfolio</div></td></tr><tr><td style="font-weight:bold;vertical-align:top;">script_name</td><td style="vertical-align:top;">:</td><td><div></div></td></tr><tr><td style="font-weight:bold;vertical-align:top;">server_name</td><td style="vertical-align:top;">:</td><td><div>han</div></td></tr><tr><td style="font-weight:bold;vertical-align:top;">server_port</td><td style="vertical-align:top;">:</td><td><div>8000</div></td></tr><tr><td style="font-weight:bold;vertical-align:top;">server_protocol</td><td style="vertical-align:top;">:</td><td><div>HTTP/1.1</div></td></tr><tr><td style="font-weight:bold;vertical-align:top;">server_software</td><td style="vertical-align:top;">:</td><td><div>Rocket 1.2.6</div></td></tr><tr><td style="font-weight:bold;vertical-align:top;">web2py_path</td><td style="vertical-align:top;">:</td><td><div>/home/han/Dropbox/web2py</div></td></tr><tr><td style="font-weight:bold;vertical-align:top;">web2py_version</td><td style="vertical-align:top;">:</td><td><div>2.9.5-stable+timestamp.2014.03.16.02.35.39</div></td></tr><tr><td style="font-weight:bold;vertical-align:top;">wsgi.errors</td><td style="vertical-align:top;">:</td><td><div>&lt;open file &#x27;&lt;stderr&gt;&#x27;, mode &#x27;w&#x27; at 0x7fab6a27c1e0&gt;</div></td></tr><tr><td style="font-weight:bold;vertical-align:top;">wsgi.file_wrapper</td><td style="vertical-align:top;">:</td><td><div>&lt;class wsgiref.util.FileWrapper at 0x7fab623f7188&gt;</div></td></tr><tr><td style="font-weight:bold;vertical-align:top;">wsgi.input</td><td style="vertical-align:top;">:</td><td><div>&lt;socket._fileobject object at 0x7fab1f5c5950&gt;</div></td></tr><tr><td style="font-weight:bold;vertical-align:top;">wsgi.multiprocess</td><td style="vertical-align:top;">:</td><td><div>False</div></td></tr><tr><td style="font-weight:bold;vertical-align:top;">wsgi.multithread</td><td style="vertical-align:top;">:</td><td><div>True</div></td></tr><tr><td style="font-weight:bold;vertical-align:top;">wsgi.run_once</td><td style="vertical-align:top;">:</td><td><div>False</div></td></tr><tr><td style="font-weight:bold;vertical-align:top;">wsgi.url_scheme</td><td style="vertical-align:top;">:</td><td><div>http</div></td></tr><tr><td style="font-weight:bold;vertical-align:top;">wsgi.version</td><td style="vertical-align:top;">:</td><td><div><table><tr><td><div>1</div></td></tr><tr><td><div>0</div></td></tr></table></div></td></tr><tr><td style="font-weight:bold;vertical-align:top;">wsgi_errors</td><td style="vertical-align:top;">:</td><td><div>&lt;open file &#x27;&lt;stderr&gt;&#x27;, mode &#x27;w&#x27; at 0x7fab6a27c1e0&gt;</div></td></tr><tr><td style="font-weight:bold;vertical-align:top;">wsgi_file_wrapper</td><td style="vertical-align:top;">:</td><td><div>&lt;class wsgiref.util.FileWrapper at 0x7fab623f7188&gt;</div></td></tr><tr><td style="font-weight:bold;vertical-align:top;">wsgi_input</td><td style="vertical-align:top;">:</td><td><div>&lt;socket._fileobject object at 0x7fab1f5c5950&gt;</div></td></tr><tr><td style="font-weight:bold;vertical-align:top;">wsgi_multiprocess</td><td style="vertical-align:top;">:</td><td><div>False</div></td></tr><tr><td style="font-weight:bold;vertical-align:top;">wsgi_multithread</td><td style="vertical-align:top;">:</td><td><div>True</div></td></tr><tr><td style="font-weight:bold;vertical-align:top;">wsgi_run_once</td><td style="vertical-align:top;">:</td><td><div>False</div></td></tr><tr><td style="font-weight:bold;vertical-align:top;">wsgi_url_scheme</td><td style="vertical-align:top;">:</td><td><div>http</div></td></tr><tr><td style="font-weight:bold;vertical-align:top;">wsgi_version</td><td style="vertical-align:top;">:</td><td><div><table><tr><td><div>1</div></td></tr><tr><td><div>0</div></td></tr></table></div></td></tr></table></div></td></tr><tr><td style="font-weight:bold;vertical-align:top;">extension</td><td style="vertical-align:top;">:</td><td><div>html</div></td></tr><tr><td style="font-weight:bold;vertical-align:top;">folder</td><td style="vertical-align:top;">:</td><td><div>/home/han/Dropbox/web2py/applications/portfolio/</div></td></tr><tr><td style="font-weight:bold;vertical-align:top;">function</td><td style="vertical-align:top;">:</td><td><div>index</div></td></tr><tr><td style="font-weight:bold;vertical-align:top;">global_settings</td><td style="vertical-align:top;">:</td><td><div><table><tr><td style="font-weight:bold;vertical-align:top;">app_folders</td><td style="vertical-align:top;">:</td><td><div>set([&#x27;/home/han/Dropbox/web2py/applications/admin/&#x27;, &#x27;/home/han/Dropbox/web2py/applications/yogurtjam/&#x27;, &#x27;/home/han/Dropbox/web2py/applications/isthisarepost/&#x27;, &#x27;/home/han/Dropbox/web2py/applications/kivaflava/&#x27;, &#x27;/home/han/Dropbox/web2py/applications/init/&#x27;, &#x27;/home/han/Dropbox/web2py/applications/portfolio/&#x27;, &#x27;/home/han/Dropbox/web2py/applications/sociagora/&#x27;])</div></td></tr><tr><td style="font-weight:bold;vertical-align:top;">applications_parent</td><td style="vertical-align:top;">:</td><td><div>/home/han/Dropbox/web2py</div></td></tr><tr><td style="font-weight:bold;vertical-align:top;">cmd_args</td><td style="vertical-align:top;">:</td><td><div><table></table></div></td></tr><tr><td style="font-weight:bold;vertical-align:top;">cmd_options</td><td style="vertical-align:top;">:</td><td><div>&lt;Values at 0x7fab61172098: {&#x27;verbose&#x27;: False, &#x27;ip&#x27;: &#x27;127.0.0.1&#x27;, &#x27;debuglevel&#x27;: 30, &#x27;with_scheduler&#x27;: False, &#x27;ips&#x27;: [&#x27;127.0.1.1&#x27;], &#x27;shutdown_timeout&#x27;: 5, &#x27;taskbar&#x27;: False, &#x27;with_coverage&#x27;: False, &#x27;port&#x27;: 8000, &#x27;maxthreads&#x27;: None, &#x27;softcron&#x27;: False, &#x27;server_name&#x27;: &#x27;han&#x27;, &#x27;bpython&#x27;: False, &#x27;nogui&#x27;: False, &#x27;pid_filename&#x27;: &#x27;httpserver.pid&#x27;, &#x27;extcron&#x27;: False, &#x27;runcron&#x27;: False, &#x27;run_system_tests&#x27;: False, &#x27;test&#x27;: None, &#x27;folder&#x27;: &#x27;/home/han/Dropbox/web2py&#x27;, &#x27;config&#x27;: &#x27;&#x27;, &#x27;minthreads&#x27;: None, &#x27;shell&#x27;: None, &#x27;run&#x27;: &#x27;&#x27;, &#x27;log_filename&#x27;: &#x27;httpserver.log&#x27;, &#x27;profiler_dir&#x27;: None, &#x27;args&#x27;: [&#x27;&#x27;], &#x27;socket_timeout&#x27;: 5, &#x27;ssl_ca_certificate&#x27;: None, &#x27;scheduler&#x27;: None, &#x27;interfaces&#x27;: None, &#x27;ssl_private_key&#x27;: &#x27;&#x27;, &#x27;scheduler_groups&#x27;: None, &#x27;password&#x27;: &#x27;&lt;ask&gt;&#x27;, &#x27;request_queue_size&#x27;: 5, &#x27;ssl_certificate&#x27;: &#x27;&#x27;, &#x27;cronjob&#x27;: False, &#x27;numthreads&#x27;: None, &#x27;quiet&#x27;: False, &#x27;import_models&#x27;: False, &#x27;timeout&#x27;: 10, &#x27;plain&#x27;: False, &#x27;nobanner&#x27;: False}&gt;</div></td></tr><tr><td style="font-weight:bold;vertical-align:top;">db_sessions</td><td style="vertical-align:top;">:</td><td><div>set([&#x27;yogurtjam&#x27;])</div></td></tr><tr><td style="font-weight:bold;vertical-align:top;">debugging</td><td style="vertical-align:top;">:</td><td><div>False</div></td></tr><tr><td style="font-weight:bold;vertical-align:top;">gluon_parent</td><td style="vertical-align:top;">:</td><td><div>/home/han/Dropbox/web2py</div></td></tr><tr><td style="font-weight:bold;vertical-align:top;">is_jython</td><td style="vertical-align:top;">:</td><td><div>False</div></td></tr><tr><td style="font-weight:bold;vertical-align:top;">is_pypy</td><td style="vertical-align:top;">:</td><td><div>False</div></td></tr><tr><td style="font-weight:bold;vertical-align:top;">is_source</td><td style="vertical-align:top;">:</td><td><div>True</div></td></tr><tr><td style="font-weight:bold;vertical-align:top;">local_hosts</td><td style="vertical-align:top;">:</td><td><div><table><tr><td><div>127.0.1.1</div></td></tr><tr><td><div>::1</div></td></tr><tr><td><div>han</div></td></tr><tr><td><div>::ffff:127.0.0.1</div></td></tr><tr><td><div>127.0.0.1</div></td></tr></table></div></td></tr><tr><td style="font-weight:bold;vertical-align:top;">web2py_version</td><td style="vertical-align:top;">:</td><td><div>2.9.5-stable+timestamp.2014.03.16.02.35.39</div></td></tr></table></div></td></tr><tr><td style="font-weight:bold;vertical-align:top;">is_https</td><td style="vertical-align:top;">:</td><td><div>False</div></td></tr><tr><td style="font-weight:bold;vertical-align:top;">is_local</td><td style="vertical-align:top;">:</td><td><div>True</div></td></tr><tr><td style="font-weight:bold;vertical-align:top;">is_restful</td><td style="vertical-align:top;">:</td><td><div>False</div></td></tr><tr><td style="font-weight:bold;vertical-align:top;">now</td><td style="vertical-align:top;">:</td><td><div>datetime.datetime(2015, 2, 28, 18, 32, 59, 133620)</div></td></tr><tr><td style="font-weight:bold;vertical-align:top;">raw_args</td><td style="vertical-align:top;">:</td><td><div></div></td></tr><tr><td style="font-weight:bold;vertical-align:top;">raw_extension</td><td style="vertical-align:top;">:</td><td><div>None</div></td></tr><tr><td style="font-weight:bold;vertical-align:top;">url</td><td style="vertical-align:top;">:</td><td><div>/portfolio</div></td></tr><tr><td style="font-weight:bold;vertical-align:top;">utcnow</td><td style="vertical-align:top;">:</td><td><div>datetime.datetime(2015, 3, 1, 2, 32, 59, 133652)</div></td></tr><tr><td style="font-weight:bold;vertical-align:top;">uuid</td><td style="vertical-align:top;">:</td><td><div>portfolio/127.0.0.1.2015-02-28.18-32-59.ac48daee-0eb6-419b-bdd6-dce38897ee86</div></td></tr><tr><td style="font-weight:bold;vertical-align:top;">wsgi</td><td style="vertical-align:top;">:</td><td><div>&lt;gluon.main.LazyWSGI object at 0x7fab1f3689d0&gt;</div></td></tr></table></div>'
tRp58
sS'frames'
p59
(lp60
(dp61
S'file'
p62
S'/home/han/Dropbox/web2py/gluon/restricted.py'
p63
sS'dump'
p64
(dp65
S'environment'
p66
S"{'A': <class 'gluon.html.A'>, 'ANY_OF': <class 'gluon.validators.ANY_OF'>, 'Auth': <class 'gluon.tools.Auth'>, 'B': <class 'gluon.html.B'>, 'BEAUTIFY': <class 'gluon.html.BEAUTIFY'>, 'BODY': <class 'gluon.html.BODY'>, 'BR': <class 'gluon.html.BR'>, 'BUTTON': <class 'gluon.html.BUTTON'>, 'CAT': <class 'gluon.html.CAT'>, 'CENTER': <class 'gluon.html.CENTER'>, ...}"
p67
sS'ccode'
p68
S'<code object <module> at 0x7fab1f6b98b0, file "/...ions/portfolio/views/default/index.html", line 1>'
p69
ssS'lnum'
p70
I220
sS'lines'
p71
(dp72
I224
S'        # do not encapsulate (obfuscate) the original RestrictedError'
p73
sI215
S'    try:'
p74
sI216
S'        if isinstance(code, types.CodeType):'
p75
sI217
S'            ccode = code'
p76
sI218
S'        else:'
p77
sI219
S'            ccode = compile2(code, layer)'
p78
sI220
S'        exec ccode in environment'
p79
sI221
S'    except HTTP:'
p80
sI222
S'        raise'
p81
sI223
S'    except RestrictedError:'
p82
ssS'call'
p83
S'(code=\'response.write(\\\'<!DOCTYPE html>\\\\n<html lang="en"...</script>\\\\n\\\\n</body>\\\\n\\\\n</html>\\\\n\\\', escape=False)\', environment={\'A\': <class \'gluon.html.A\'>, \'ANY_OF\': <class \'gluon.validators.ANY_OF\'>, \'Auth\': <class \'gluon.tools.Auth\'>, \'B\': <class \'gluon.html.B\'>, \'BEAUTIFY\': <class \'gluon.html.BEAUTIFY\'>, \'BODY\': <class \'gluon.html.BODY\'>, \'BR\': <class \'gluon.html.BR\'>, \'BUTTON\': <class \'gluon.html.BUTTON\'>, \'CAT\': <class \'gluon.html.CAT\'>, \'CENTER\': <class \'gluon.html.CENTER\'>, ...}, layer=\'/home/han/Dropbox/web2py/applications/portfolio/views/default/index.html\')'
p84
sS'func'
p85
S'restricted'
p86
sa(dp87
g62
S'/home/han/Dropbox/web2py/applications/portfolio/views/default/index.html'
p88
sg64
(dp89
S'href'
p90
S'undefined'
p91
sS'link'
p92
g91
sS'rel'
p93
g91
ssg70
I16
sg71
(dp94
I7
S'response.write(\'/bootstrap.min.css" rel="stylesheet">\\n\\n    <!-- Custom CSS -->\\n    <link href="\', escape=False)'
p95
sI8
S"response.write(URL('static', 'css'))"
p96
sI9
S'response.write(\'/freelancer.css" rel="stylesheet">\\n    <link href="\', escape=False)'
p97
sI10
S"response.write(URL('static', 'css'))"
p98
sI11
S'response.write(\'/style.css" rel="stylesheet">\\n\\n    <!-- Custom Fonts -->\\n    <link href="\', escape=False)'
p99
sI12
S"response.write(URL('static', 'font-awesome'))"
p100
sI13
S'response.write(\'/css/font-awesome.min.css" rel="stylesheet" type="text/css">\\n    <link href="//fonts.googleapis.com/css?family=Montserrat:400,700" rel="stylesheet" type="text/css">\\n    <link href="//fonts.googleapis.com/css?family=Lato:400,700,400italic,700italic" rel="stylesheet" type="text/css">\\n\\n    <!-- HTML5 Shim and Respond.js IE8 support of HTML5 elements and media queries -->\\n    <!-- WARNING: Respond.js doesn\\\'t work if you view the page via file:// -->\\n    <!--[if lt IE 9]>\\n        <script src="https://oss.maxcdn.com/libs/html5shiv/3.7.0/html5shiv.js"></script>\\n        <script src="https://oss.maxcdn.com/libs/respond.js/1.4.2/respond.min.js"></script>\\n    <![endif]-->\\n\\n</head>\\n\\n<body id="page-top" class="index">\\n\\n    <!-- Navigation -->\\n    <nav class="navbar navbar-default navbar-fixed-top">\\n        <div class="container">\\n            <!-- Brand and toggle get grouped for better mobile display -->\\n            <div class="navbar-header page-scroll">\\n                <button type="button" class="navbar-toggle" data-toggle="collapse" data-target="#bs-example-navbar-collapse-1">\\n                    <span class="sr-only">Toggle navigation</span>\\n                    <span class="icon-bar"></span>\\n                    <span class="icon-bar"></span>\\n                    <span class="icon-bar"></span>\\n                </button>\\n                <a class="navbar-brand" href="#page-top">HK</a>\\n            </div>\\n\\n            <!-- Collect the nav links, forms, and other content for toggling -->\\n            <div class="collapse navbar-collapse" id="bs-example-navbar-collapse-1">\\n                <ul class="nav navbar-nav navbar-right">\\n                    <li class="hidden">\\n                        <a href="#page-top"></a>\\n                    </li>\\n                    <li class="page-scroll">\\n                        <a href="#portfolio">Projects</a>\\n                    </li>\\n                    <li class="page-scroll">\\n                        <a href="#about">Writing</a>\\n                    </li>\\n                    <li class="page-scroll">\\n                        <a href="#footer">Contact</a>\\n                    </li>\\n                </ul>\\n            </div>\\n            <!-- /.navbar-collapse -->\\n        </div>\\n        <!-- /.container-fluid -->\\n    </nav>\\n\\n    <!-- Header -->\\n    <header>\\n        <div class="container">\\n            <div class="row">\\n                <div class="col-lg-12">\\n                    <img class="img-responsive" src="\', escape=False)'
p101
sI14
S"response.write(URL('static', 'img'))"
p102
sI15
S'response.write(\'/profile.png" alt="">\\n                    <div class="intro-text">\\n                        <span class="name">Hey, I\\\'m Han</span>\\n                        <!-- <hr class="star-light"> -->\\n                        <!-- <span class="skills"></span> -->\\n                    </div>\\n                </div>\\n            </div>\\n        </div>\\n    </header>\\n\\n    <!-- Portfolio Grid Section -->\\n    <section id="portfolio">\\n        <div class="container">\\n            <div class="row">\\n                <div class="col-lg-12 text-center">\\n                    <h2>I build things...</h2>\\n                    <hr class="star-primary">\\n                </div>\\n            </div>\\n            <div class="row">\\n                <div class="col-sm-6 portfolio-item">\\n                    <a href="\', escape=False)'
p103
sI16
S"response.write(URL(application='isthisarepost'))"
p104
sI17
S'response.write(\'" target="blank" class="portfolio-link" data-toggle="modal">\\n                        <div class="caption">\\n                            <div class="caption-content">\\n                                <i class="fa fa-search-plus fa-3x"></i>\\n                            </div>\\n                        </div>\\n                        <img src="\', escape=False)'
p105
sI18
S"response.write(URL('static', 'img'))"
p106
sI19
S'response.write(\'/portfolio/isthisarepost.png" class="img-responsive" alt="">\\n                    </a>\\n                </div>\\n                <div class="col-sm-6 portfolio-item">\\n                    <a href="//www.yogurtjam.com" target="blank" class="portfolio-link" data-toggle="modal">\\n                        <div class="caption">\\n                            <div class="caption-content">\\n                                <i class="fa fa-search-plus fa-3x"></i>\\n                            </div>\\n                        </div>\\n                        <img src="\', escape=False)'
p107
sI20
S"response.write(URL('static', 'img'))"
p108
sI21
S'response.write(\'/portfolio/yogurtjam.png" class="img-responsive" alt="">\\n                    </a>\\n                </div>\\n                <div class="col-sm-6 portfolio-item">\\n                    <a href="//www.hankim.io/sociagora" target="blank" class="portfolio-link" data-toggle="modal">\\n                        <div class="caption">\\n                            <div class="caption-content">\\n                                <i class="fa fa-search-plus fa-3x"></i>\\n                            </div>\\n                        </div>\\n                        <img src="\', escape=False)'
p109
sI22
S"response.write(URL('static', 'img'))"
p110
sI23
S'response.write(\'/portfolio/sociagora.png" class="img-responsive" alt="">\\n                    </a>\\n                </div>\\n                <div class="col-sm-6 portfolio-item">\\n                    <a href="//www.hankim.io/kivaflava" target="blank" class="portfolio-link" data-toggle="modal">\\n                        <div class="caption">\\n                            <div class="caption-content">\\n                                <i class="fa fa-search-plus fa-3x"></i>\\n                            </div>\\n                        </div>\\n                        <img src="\', escape=False)'
p111
sI24
S"response.write(URL('static', 'img'))"
p112
sI25
S'response.write(\'/portfolio/kivaflava.png" class="img-responsive" alt="">\\n                    </a>\\n                </div>\\n            </div>\\n        </div>\\n    </section>\\n\\n    <!-- About Section -->\\n    <section class="success" id="about">\\n        <div class="container">\\n            <div class="row">\\n                <div class="col-lg-12 text-center">\\n                    <h2>and write stuff...</h2>\\n                    <hr class="star-light">\\n                </div>\\n            </div>\\n            <div class="row">\\n                <div class="col-sm-8 col-sm-offset-2 text-center">\\n                    <a href="//192.168.0.10" target="blank" class="portfolio-link" data-toggle="modal">\\n                        <div class="caption">\\n                            <div class="caption-content">\\n                                <i class="fa fa-search-plus fa-3x"></i>\\n                            </div>\\n                        </div>\\n                        <img src="\', escape=False)'
p113
sI26
S"response.write(URL('static', 'img'))"
p114
ssg83
S'()'
p115
sg85
S'<module>'
p116
sasS'pyver'
p117
S'Python 2.7.8: /home/han/anaconda/bin/python (prefix: /home/han/anaconda)'
p118
sS'session'
p119
g57
(S's\x1a\x00\x00\x00<div><table></table></div>'
tRp120
sS'etype'
p121
S"<type 'exceptions.TypeError'>"
p122
sS'date'
p123
S'Sat Feb 28 18:32:59 2015'
p124
sS'response'
p125
g57
(S'sw0\x00\x00<div><table><tr><td style="font-weight:bold;vertical-align:top;">body</td><td style="vertical-align:top;">:</td><td><div>&lt;cStringIO.StringO object at 0x7fab1f6d00d8&gt;</div></td></tr><tr><td style="font-weight:bold;vertical-align:top;">cookies</td><td style="vertical-align:top;">:</td><td><div><table><tr><td style="font-weight:bold;vertical-align:top;">session_id_portfolio</td><td style="vertical-align:top;">:</td><td><div>127.0.0.1-e00161d5-a365-4dca-b72d-a40dc6aa4974<table><tr><td style="font-weight:bold;vertical-align:top;">comment</td><td style="vertical-align:top;">:</td><td><div></div></td></tr><tr><td style="font-weight:bold;vertical-align:top;">domain</td><td style="vertical-align:top;">:</td><td><div></div></td></tr><tr><td style="font-weight:bold;vertical-align:top;">expires</td><td style="vertical-align:top;">:</td><td><div></div></td></tr><tr><td style="font-weight:bold;vertical-align:top;">httponly</td><td style="vertical-align:top;">:</td><td><div></div></td></tr><tr><td style="font-weight:bold;vertical-align:top;">max-age</td><td style="vertical-align:top;">:</td><td><div></div></td></tr><tr><td style="font-weight:bold;vertical-align:top;">path</td><td style="vertical-align:top;">:</td><td><div>/</div></td></tr><tr><td style="font-weight:bold;vertical-align:top;">secure</td><td style="vertical-align:top;">:</td><td><div></div></td></tr><tr><td style="font-weight:bold;vertical-align:top;">version</td><td style="vertical-align:top;">:</td><td><div></div></td></tr></table></div></td></tr></table></div></td></tr><tr><td style="font-weight:bold;vertical-align:top;">delimiters</td><td style="vertical-align:top;">:</td><td><div><table><tr><td><div>{{</div></td></tr><tr><td><div>}}</div></td></tr></table></div></td></tr><tr><td style="font-weight:bold;vertical-align:top;">files</td><td style="vertical-align:top;">:</td><td><div><table></table></div></td></tr><tr><td style="font-weight:bold;vertical-align:top;">flash</td><td style="vertical-align:top;">:</td><td><div>Welcome to web2py!</div></td></tr><tr><td style="font-weight:bold;vertical-align:top;">generic_patterns</td><td style="vertical-align:top;">:</td><td><div><table><tr><td><div>*</div></td></tr></table></div></td></tr><tr><td style="font-weight:bold;vertical-align:top;">google_analytics_id</td><td style="vertical-align:top;">:</td><td><div>None</div></td></tr><tr><td style="font-weight:bold;vertical-align:top;">headers</td><td style="vertical-align:top;">:</td><td><div><table><tr><td style="font-weight:bold;vertical-align:top;">X-Powered-By</td><td style="vertical-align:top;">:</td><td><div>web2py</div></td></tr></table></div></td></tr><tr><td style="font-weight:bold;vertical-align:top;">logo</td><td style="vertical-align:top;">:</td><td><div><a class="brand" href="http://www.web2py.com/"><b>web<span>2</span>py</b>&trade;&nbsp;</a></div></td></tr><tr><td style="font-weight:bold;vertical-align:top;">menu</td><td style="vertical-align:top;">:</td><td><div><table><tr><td><div><table><tr><td><div>Home</div></td></tr><tr><td><div>False</div></td></tr><tr><td><div>/portfolio/default/index</div></td></tr><tr><td><div><table></table></div></td></tr></table></div></td></tr><tr><td><div><table><tr><td><div><span class="highlighted">web2py</span></div></td></tr><tr><td><div>False</div></td></tr><tr><td><div>http://web2py.com</div></td></tr><tr><td><div><table><tr><td><div><table><tr><td><div>My Sites</div></td></tr><tr><td><div>False</div></td></tr><tr><td><div>/admin/default/site</div></td></tr></table></div></td></tr><tr><td><div><table><tr><td><div>This App</div></td></tr><tr><td><div>False</div></td></tr><tr><td><div>/admin/default/design/portfolio</div></td></tr><tr><td><div>[(&lt;lazyT &#x27;Controller&#x27;&gt;, False, &#x27;/admin/default/edit/portfolio/controllers/default.py&#x27;), (&lt;lazyT &#x27;View&#x27;&gt;, False, &#x27;/admin/default/edit/portfolio/views/default/index.html&#x27;), (&lt;lazyT &#x27;Layout&#x27;&gt;, False, &#x27;/admin/default/edit/portfolio/views/layout.html&#x27;), (&lt;lazyT &#x27;Stylesheet&#x27;&gt;, False, &#x27;/admin/default/edit/portfolio/static/css/web2py.css&#x27;), (&lt;lazyT &#x27;DB Model&#x27;&gt;, False, &#x27;/admin/default/edit/portfolio/models/db.py&#x27;), (&lt;lazyT &#x27;Menu Model&#x27;&gt;, False, &#x27;/admin/default/edit/portfolio/models/menu.py&#x27;), (&lt;lazyT &#x27;Database&#x27;&gt;, False, &#x27;/portfolio/appadmin/index&#x27;), (&lt;lazyT &#x27;Errors&#x27;&gt;, False, &#x27;/admin/default/errors/portfolio&#x27;), (&lt;lazyT &#x27;About&#x27;&gt;, False, &#x27;/admin/default/about/portfolio&#x27;)]</div></td></tr></table></div></td></tr><tr><td><div><table><tr><td><div>web2py.com</div></td></tr><tr><td><div>False</div></td></tr><tr><td><div>http://www.web2py.com</div></td></tr><tr><td><div>[(&lt;lazyT &#x27;Download&#x27;&gt;, False, &#x27;http://www.web2py.com/examples/default/download&#x27;), (&lt;lazyT &#x27;Support&#x27;&gt;, False, &#x27;http://www.web2py.com/examples/default/support&#x27;), (&lt;lazyT &#x27;Demo&#x27;&gt;, False, &#x27;http://web2py.com/demo_admin&#x27;), (&lt;lazyT &#x27;Quick Examples&#x27;&gt;, False, &#x27;http://web2py.com/examples/default/examples&#x27;), (&lt;lazyT &#x27;FAQ&#x27;&gt;, False, &#x27;http://web2py.com/AlterEgo&#x27;), (&lt;lazyT &#x27;Videos&#x27;&gt;, False, &#x27;http://www.web2py.com/examples/default/videos/&#x27;), (&lt;lazyT &#x27;Free Applications&#x27;&gt;, False, &#x27;http://web2py.com/appliances&#x27;), (&lt;lazyT &#x27;Plugins&#x27;&gt;, False, &#x27;http://web2py.com/plugins&#x27;), (&lt;lazyT &#x27;Layouts&#x27;&gt;, False, &#x27;http://web2py.com/layouts&#x27;), (&lt;lazyT &#x27;Recipes&#x27;&gt;, False, &#x27;http://web2pyslices.com/&#x27;), (&lt;lazyT &#x27;Semantic&#x27;&gt;, False, &#x27;http://web2py.com/semantic&#x27;)]</div></td></tr></table></div></td></tr><tr><td><div><table><tr><td><div>Documentation</div></td></tr><tr><td><div>False</div></td></tr><tr><td><div>http://www.web2py.com/book</div></td></tr><tr><td><div>[(&lt;lazyT &#x27;Preface&#x27;&gt;, False, &#x27;http://www.web2py.com/book/default/chapter/00&#x27;), (&lt;lazyT &#x27;Introduction&#x27;&gt;, False, &#x27;http://www.web2py.com/book/default/chapter/01&#x27;), (&lt;lazyT &#x27;Python&#x27;&gt;, False, &#x27;http://www.web2py.com/book/default/chapter/02&#x27;), (&lt;lazyT &#x27;Overview&#x27;&gt;, False, &#x27;http://www.web2py.com/book/default/chapter/03&#x27;), (&lt;lazyT &#x27;The Core&#x27;&gt;, False, &#x27;http://www.web2py.com/book/default/chapter/04&#x27;), (&lt;lazyT &#x27;The Views&#x27;&gt;, False, &#x27;http://www.web2py.com/book/default/chapter/05&#x27;), (&lt;lazyT &#x27;Database&#x27;&gt;, False, &#x27;http://www.web2py.com/book/default/chapter/06&#x27;), (&lt;lazyT &#x27;Forms and Validators&#x27;&gt;, False, &#x27;http://www.web2py.com/book/default/chapter/07&#x27;), (&lt;lazyT &#x27;Email and SMS&#x27;&gt;, False, &#x27;http://www.web2py.com/book/default/chapter/08&#x27;), (&lt;lazyT &#x27;Access Control&#x27;&gt;, False, &#x27;http://www.web2py.com/book/default/chapter/09&#x27;), (&lt;lazyT &#x27;Services&#x27;&gt;, False, &#x27;http://www.web2py.com/book/default/chapter/10&#x27;), (&lt;lazyT &#x27;Ajax Recipes&#x27;&gt;, False, &#x27;http://www.web2py.com/book/default/chapter/11&#x27;), (&lt;lazyT &#x27;Components and Plugins&#x27;&gt;, False, &#x27;http://www.web2py.com/book/default/chapter/12&#x27;), (&lt;lazyT &#x27;Deployment Recipes&#x27;&gt;, False, &#x27;http://www.web2py.com/book/default/chapter/13&#x27;), (&lt;lazyT &#x27;Other Recipes&#x27;&gt;, False, &#x27;http://www.web2py.com/book/default/chapter/14&#x27;), (&lt;lazyT &#x27;Buy this book&#x27;&gt;, False, &#x27;http://stores.lulu.com/web2py&#x27;)]</div></td></tr></table></div></td></tr><tr><td><div><table><tr><td><div>Community</div></td></tr><tr><td><div>False</div></td></tr><tr><td><div>None</div></td></tr><tr><td><div>[(&lt;lazyT &#x27;Groups&#x27;&gt;, False, &#x27;http://www.web2py.com/examples/default/usergroups&#x27;), (&lt;lazyT &#x27;Twitter&#x27;&gt;, False, &#x27;http://twitter.com/web2py&#x27;), (&lt;lazyT &#x27;Live Chat&#x27;&gt;, False, &#x27;http://webchat.freenode.net/?channels=web2py&#x27;)]</div></td></tr></table></div></td></tr><tr><td><div><table><tr><td><div>Plugins</div></td></tr><tr><td><div>False</div></td></tr><tr><td><div>None</div></td></tr><tr><td><div>[(&#x27;plugin_wiki&#x27;, False, &#x27;http://web2py.com/examples/default/download&#x27;), (&lt;lazyT &#x27;Other Plugins&#x27;&gt;, False, &#x27;http://web2py.com/plugins&#x27;), (&lt;lazyT &#x27;Layout Plugins&#x27;&gt;, False, &#x27;http://web2py.com/layouts&#x27;)]</div></td></tr></table></div></td></tr></table></div></td></tr></table></div></td></tr></table></div></td></tr><tr><td style="font-weight:bold;vertical-align:top;">meta</td><td style="vertical-align:top;">:</td><td><div><table><tr><td style="font-weight:bold;vertical-align:top;">author</td><td style="vertical-align:top;">:</td><td><div>Your Name &lt;you@example.com&gt;</div></td></tr><tr><td style="font-weight:bold;vertical-align:top;">generator</td><td style="vertical-align:top;">:</td><td><div>Web2py Web Framework</div></td></tr><tr><td style="font-weight:bold;vertical-align:top;">keywords</td><td style="vertical-align:top;">:</td><td><div>web2py, python, framework</div></td></tr></table></div></td></tr><tr><td style="font-weight:bold;vertical-align:top;">models_to_run</td><td style="vertical-align:top;">:</td><td><div><table><tr><td><div>^\\w+\\.py$</div></td></tr><tr><td><div>^default/\\w+\\.py$</div></td></tr><tr><td><div>^default/index/\\w+\\.py$</div></td></tr></table></div></td></tr><tr><td style="font-weight:bold;vertical-align:top;">postprocessing</td><td style="vertical-align:top;">:</td><td><div><table></table></div></td></tr><tr><td style="font-weight:bold;vertical-align:top;">session_client</td><td style="vertical-align:top;">:</td><td><div>127.0.0.1</div></td></tr><tr><td style="font-weight:bold;vertical-align:top;">session_cookie_compression_level</td><td style="vertical-align:top;">:</td><td><div>None</div></td></tr><tr><td style="font-weight:bold;vertical-align:top;">session_cookie_expires</td><td style="vertical-align:top;">:</td><td><div>None</div></td></tr><tr><td style="font-weight:bold;vertical-align:top;">session_cookie_key</td><td style="vertical-align:top;">:</td><td><div>None</div></td></tr><tr><td style="font-weight:bold;vertical-align:top;">session_data_name</td><td style="vertical-align:top;">:</td><td><div>session_data_portfolio</div></td></tr><tr><td style="font-weight:bold;vertical-align:top;">session_file</td><td style="vertical-align:top;">:</td><td><div>None</div></td></tr><tr><td style="font-weight:bold;vertical-align:top;">session_filename</td><td style="vertical-align:top;">:</td><td><div>/home/han/Dropbox/web2py/applications/portfolio/sessions/127.0.0.1-e00161d5-a365-4dca-b72d-a40dc6aa4974</div></td></tr><tr><td style="font-weight:bold;vertical-align:top;">session_hash</td><td style="vertical-align:top;">:</td><td><div>106f4c22ca06cc343e42b73a0d8492f6</div></td></tr><tr><td style="font-weight:bold;vertical-align:top;">session_id</td><td style="vertical-align:top;">:</td><td><div>127.0.0.1-e00161d5-a365-4dca-b72d-a40dc6aa4974</div></td></tr><tr><td style="font-weight:bold;vertical-align:top;">session_id_name</td><td style="vertical-align:top;">:</td><td><div>session_id_portfolio</div></td></tr><tr><td style="font-weight:bold;vertical-align:top;">session_masterapp</td><td style="vertical-align:top;">:</td><td><div>portfolio</div></td></tr><tr><td style="font-weight:bold;vertical-align:top;">session_new</td><td style="vertical-align:top;">:</td><td><div>True</div></td></tr><tr><td style="font-weight:bold;vertical-align:top;">session_storage_type</td><td style="vertical-align:top;">:</td><td><div>file</div></td></tr><tr><td style="font-weight:bold;vertical-align:top;">status</td><td style="vertical-align:top;">:</td><td><div>200</div></td></tr><tr><td style="font-weight:bold;vertical-align:top;">subtitle</td><td style="vertical-align:top;">:</td><td><div></div></td></tr><tr><td style="font-weight:bold;vertical-align:top;">title</td><td style="vertical-align:top;">:</td><td><div>Portfolio</div></td></tr><tr><td style="font-weight:bold;vertical-align:top;">view</td><td style="vertical-align:top;">:</td><td><div>default/index.html</div></td></tr></table></div>'
tRp126
sS'locals'
p127
(dp128
S'Service'
p129
S"<class 'gluon.tools.Service'>"
p130
sS'OBJECT'
p131
S"<class 'gluon.html.OBJECT'>"
p132
sS'SQLDB'
p133
S"<class 'gluon.dal.DAL'>"
p134
sg119
S'<Storage {}>'
p135
sS'LINK'
p136
S"<class 'gluon.html.LINK'>"
p137
sS'BR'
p138
S"<class 'gluon.html.BR'>"
p139
sS'local_import'
p140
S'<function <lambda>>'
p141
sS'OPTGROUP'
p142
S"<class 'gluon.html.OPTGROUP'>"
p143
sS'__package__'
p144
S'None'
p145
sS'PRE'
p146
S"<class 'gluon.html.PRE'>"
p147
sS'IS_INT_IN_RANGE'
p148
S"<class 'gluon.validators.IS_INT_IN_RANGE'>"
p149
sS'IS_LOWER'
p150
S"<class 'gluon.validators.IS_LOWER'>"
p151
sS'IS_STRONG'
p152
S"<class 'gluon.validators.IS_STRONG'>"
p153
sS'cache'
p154
S'<gluon.cache.Cache object>'
p155
sS'IS_IN_DB'
p156
S"<class 'gluon.validators.IS_IN_DB'>"
p157
sS'TAG'
p158
S'<gluon.html.__TAG__ object>'
p159
sS'SQLField'
p160
S"<class 'gluon.dal.Field'>"
p161
sS'mail'
p162
S'<gluon.tools.Mail object>'
p163
sS'BODY'
p164
S"<class 'gluon.html.BODY'>"
p165
sS'IS_DATE_IN_RANGE'
p166
S"<class 'gluon.validators.IS_DATE_IN_RANGE'>"
p167
sS'IFRAME'
p168
S"<class 'gluon.html.IFRAME'>"
p169
sS'URL'
p170
S'<function URL>'
p171
sS'__file__'
p172
S"'/home/han/Dropbox/web2py/applications/portfolio/views/default/index.html'"
p173
sS'db'
p174
S'<DAL uri="sqlite://storage.sqlite">'
p175
sS'auth'
p176
S'<gluon.tools.Auth object>'
p177
sS'P'
S"<class 'gluon.html.P'>"
p178
sS'TFOOT'
p179
S"<class 'gluon.html.TFOOT'>"
p180
sS'XHTML'
p181
S"<class 'gluon.html.XHTML'>"
p182
sS'ON'
p183
S'True'
p184
sS'OL'
p185
S"<class 'gluon.html.OL'>"
p186
sS'TEXTAREA'
p187
S"<class 'gluon.html.TEXTAREA'>"
p188
sS'MENU'
p189
S"<class 'gluon.html.MENU'>"
p190
sS'IS_IMAGE'
p191
S"<class 'gluon.validators.IS_IMAGE'>"
p192
sS'EM'
p193
S"<class 'gluon.html.EM'>"
p194
sS'CODE'
p195
S"<class 'gluon.html.CODE'>"
p196
sS'HTTP'
p197
S"<class 'gluon.http.HTTP'>"
p198
sS'HR'
p199
S"<class 'gluon.html.HR'>"
p200
sS'IS_DATETIME'
p201
S"<class 'gluon.validators.IS_DATETIME'>"
p202
sS'STYLE'
p203
S"<class 'gluon.html.STYLE'>"
p204
sS'LABEL'
p205
S"<class 'gluon.html.LABEL'>"
p206
sS'CLEANUP'
p207
S"<class 'gluon.validators.CLEANUP'>"
p208
sS'plugins'
p209
S'<gluon.tools.PluginManager object>'
p210
sS'SELECT'
p211
S"<class 'gluon.html.SELECT'>"
p212
sS'use_janrain'
p213
S'<function use_janrain>'
p214
sS'CENTER'
p215
S"<class 'gluon.html.CENTER'>"
p216
sS'prettydate'
p217
S'<function prettydate>'
p218
sS'Crud'
p219
S"<class 'gluon.tools.Crud'>"
p220
sS'Auth'
p221
S"<class 'gluon.tools.Auth'>"
p222
sS'DEVELOPMENT_MENU'
p223
g184
sS'__builtins__'
p224
S"{'ArithmeticError': <type 'exceptions.ArithmeticError'>, 'AssertionError': <type 'exceptions.AssertionError'>, 'AttributeError': <type 'exceptions.AttributeError'>, 'BaseException': <type 'exceptions.BaseException'>, 'BufferError': <type 'exceptions.BufferError'>, 'BytesWarning': <type 'exceptions.BytesWarning'>, 'DeprecationWarning': <type 'exceptions.DeprecationWarning'>, 'EOFError': <type 'exceptions.EOFError'>, 'Ellipsis': Ellipsis, 'EnvironmentError': <type 'exceptions.EnvironmentError'>, ...}"
p225
sS'HTML'
p226
S"<class 'gluon.html.HTML'>"
p227
sS'SQLFORM'
p228
S"<class 'gluon.sqlhtml.SQLFORM'>"
p229
sS'LOAD'
p230
S'<function LOAD>'
p231
sS'redirect'
p232
S'<function redirect>'
p233
sS'FIELDSET'
p234
S"<class 'gluon.html.FIELDSET'>"
p235
sS'IS_EQUAL_TO'
p236
S"<class 'gluon.validators.IS_EQUAL_TO'>"
p237
sS'embed64'
p238
S'<function embed64>'
p239
sS'IS_LIST_OF'
p240
S"<class 'gluon.validators.IS_LIST_OF'>"
p241
sS'INPUT'
p242
S"<class 'gluon.html.INPUT'>"
p243
sS'EMBED'
p244
S"<class 'gluon.html.EMBED'>"
p245
sS'_'
S'<function _>'
p246
sS'H2'
p247
S"<class 'gluon.html.H2'>"
p248
sS'H3'
p249
S"<class 'gluon.html.H3'>"
p250
sS'BUTTON'
p251
S"<class 'gluon.html.BUTTON'>"
p252
sS'H1'
p253
S"<class 'gluon.html.H1'>"
p254
sS'H6'
p255
S"<class 'gluon.html.H6'>"
p256
sS'H4'
p257
S"<class 'gluon.html.H4'>"
p258
sS'H5'
p259
S"<class 'gluon.html.H5'>"
p260
sS'UL'
p261
S"<class 'gluon.html.UL'>"
p262
sS'IS_UPPER'
p263
S"<class 'gluon.validators.IS_UPPER'>"
p264
sS'xmlescape'
p265
S'<function xmlescape>'
p266
sS'IS_TIME'
p267
S"<class 'gluon.validators.IS_TIME'>"
p268
sS'OPTION'
p269
S"<class 'gluon.html.OPTION'>"
p270
sS'TITLE'
p271
S"<class 'gluon.html.TITLE'>"
p272
sS'CRYPT'
p273
S"<class 'gluon.validators.CRYPT'>"
p274
sS'IS_EMPTY_OR'
p275
S"<class 'gluon.validators.IS_EMPTY_OR'>"
p276
sS'MARKMIN'
p277
S"<class 'gluon.html.MARKMIN'>"
p278
sS'__name__'
p279
S"'__restricted__'"
p280
sS'message'
p281
S"<lazyT 'Hello World'>"
p282
sS'STRONG'
p283
S"<class 'gluon.html.STRONG'>"
p284
sS'COL'
p285
S"<class 'gluon.html.COL'>"
p286
sS'service'
p287
S'<gluon.tools.Service object>'
p288
sS'SCRIPT'
p289
S"<class 'gluon.html.SCRIPT'>"
p290
sS'TABLE'
p291
S"<class 'gluon.html.TABLE'>"
p292
sS'IS_IPV4'
p293
S"<class 'gluon.validators.IS_IPV4'>"
p294
sS'IS_LENGTH'
p295
S"<class 'gluon.validators.IS_LENGTH'>"
p296
sS'IS_IPV6'
p297
S"<class 'gluon.validators.IS_IPV6'>"
p298
sS'XML'
p299
S"<class 'gluon.html.XML'>"
p300
sS'B'
S"<class 'gluon.html.B'>"
p301
sS'IMG'
p302
S"<class 'gluon.html.IMG'>"
p303
sS'SQLTABLE'
p304
S"<class 'gluon.sqlhtml.SQLTABLE'>"
p305
sS'IS_MATCH'
p306
S"<class 'gluon.validators.IS_MATCH'>"
p307
sS'IS_ALPHANUMERIC'
p308
S"<class 'gluon.validators.IS_ALPHANUMERIC'>"
p309
sS'SPAN'
p310
S"<class 'gluon.html.SPAN'>"
p311
sS'IS_JSON'
p312
S"<class 'gluon.validators.IS_JSON'>"
p313
sS'IS_IPADDRESS'
p314
S"<class 'gluon.validators.IS_IPADDRESS'>"
p315
sS'IS_SLUG'
p316
S"<class 'gluon.validators.IS_SLUG'>"
p317
sS'BEAUTIFY'
p318
S"<class 'gluon.html.BEAUTIFY'>"
p319
sS'META'
p320
S"<class 'gluon.html.META'>"
p321
sS'IS_DATE'
p322
S"<class 'gluon.validators.IS_DATE'>"
p323
sS'IS_EMAIL'
p324
S"<class 'gluon.validators.IS_EMAIL'>"
p325
sS'IS_NOT_EMPTY'
p326
S"<class 'gluon.validators.IS_NOT_EMPTY'>"
p327
sS'IS_FLOAT_IN_RANGE'
p328
S"<class 'gluon.validators.IS_FLOAT_IN_RANGE'>"
p329
sS'TBODY'
p330
S"<class 'gluon.html.TBODY'>"
p331
sS'CAT'
p332
S"<class 'gluon.html.CAT'>"
p333
sS'Field'
p334
S"<class 'gluon.dal.Field'>"
p335
sS'IS_LIST_OF_EMAILS'
p336
S"<class 'gluon.validators.IS_LIST_OF_EMAILS'>"
p337
sS'DIV'
p338
S"<class 'gluon.html.DIV'>"
p339
sS'LEGEND'
p340
S"<class 'gluon.html.LEGEND'>"
p341
sS'COLGROUP'
p342
S"<class 'gluon.html.COLGROUP'>"
p343
sS'DAL'
p344
S"<class 'gluon.dal.DAL'>"
p345
sS'TT'
p346
S"<class 'gluon.html.TT'>"
p347
sS'TR'
p348
S"<class 'gluon.html.TR'>"
p349
sS'LI'
p350
S"<class 'gluon.html.LI'>"
p351
sS'TH'
p352
S"<class 'gluon.html.TH'>"
p353
sS'TD'
p354
S"<class 'gluon.html.TD'>"
p355
sS'PluginManager'
p356
S"<class 'gluon.tools.PluginManager'>"
p357
sS'IS_URL'
p358
S"<class 'gluon.validators.IS_URL'>"
p359
sS'A'
S"<class 'gluon.html.A'>"
p360
sS'HEAD'
p361
S"<class 'gluon.html.HEAD'>"
p362
sS'IS_DATETIME_IN_RANGE'
p363
S"<class 'gluon.validators.IS_DATETIME_IN_RANGE'>"
p364
sS'FORM'
p365
S"<class 'gluon.html.FORM'>"
p366
sS'I'
S"<class 'gluon.html.I'>"
p367
sS'crud'
p368
S'<gluon.tools.Crud object>'
p369
sS'IS_NOT_IN_DB'
p370
S"<class 'gluon.validators.IS_NOT_IN_DB'>"
p371
sg125
S"<Storage {'body': <cStringIO.StringO object at 0...t 0x7fab1f652c80>, 'view': 'default/index.html'}>"
p372
sS'THEAD'
p373
S"<class 'gluon.html.THEAD'>"
p374
sS'ANY_OF'
p375
S"<class 'gluon.validators.ANY_OF'>"
p376
sS'IS_NULL_OR'
p377
S"<class 'gluon.validators.IS_EMPTY_OR'>"
p378
sg56
S"<Storage {'_vars': None, 'function': 'index', 'c...ome/han/Dropbox/web2py/applications/portfolio/'}>"
p379
sS'IS_EXPR'
p380
S"<class 'gluon.validators.IS_EXPR'>"
p381
sS'T'
S'<gluon.languages.translator object>'
p382
sS'IS_IN_SET'
p383
S"<class 'gluon.validators.IS_IN_SET'>"
p384
sS'IS_UPLOAD_FILENAME'
p385
S"<class 'gluon.validators.IS_UPLOAD_FILENAME'>"
p386
sS'IS_DECIMAL_IN_RANGE'
p387
S"<class 'gluon.validators.IS_DECIMAL_IN_RANGE'>"
p388
sssS'traceback'
p389
S'Traceback (most recent call last):\n  File "/home/han/Dropbox/web2py/gluon/restricted.py", line 220, in restricted\n    exec ccode in environment\n  File "/home/han/Dropbox/web2py/applications/portfolio/views/default/index.html", line 16, in <module>\n    <link rel="apple-touch-icon" href="{{=URL(\'static\', \'img\')}}/logo.png">\nTypeError: URL() got an unexpected keyword argument \'application\'\n'
p390
s.